target datalayout = "e-m:e-p270:32:32-p271:32:32-p272:64:64-i64:64-i128:128-f80:128-n8:16:32:64-S128"
target triple = "x86_64-pc-linux-gnu"

%struct.engine_st = type { ptr, ptr, ptr, ptr, ptr, ptr, ptr, ptr, ptr, ptr, ptr, ptr, ptr, ptr, ptr, ptr, ptr, ptr, ptr, i32, %struct.CRYPTO_REF_COUNT, i32, %struct.crypto_ex_data_st, ptr, ptr, ptr, ptr, ptr }
%struct.CRYPTO_REF_COUNT = type { i32 }
%struct.crypto_ex_data_st = type { ptr, ptr }

@pkey_asn1_meth_table = internal global ptr null, align 8

; Function Attrs: nounwind uwtable
define i32 @ENGINE_register_pkey_asn1_meths(ptr noundef %0) #0 {
  %2 = alloca i32, align 4
  %3 = alloca ptr, align 8
  %4 = alloca ptr, align 8
  %5 = alloca i32, align 4
  %6 = alloca i32, align 4
  store ptr %0, ptr %3, align 8, !tbaa !3
  %7 = load ptr, ptr %3, align 8, !tbaa !3
  %8 = getelementptr inbounds nuw %struct.engine_st, ptr %7, i32 0, i32 10
  %9 = load ptr, ptr %8, align 8, !tbaa !8
  %10 = icmp ne ptr %9, null
  br i1 %10, label %11, label %28

11:                                               ; preds = %1
  call void @llvm.lifetime.start.p0(i64 8, ptr %4) #5
  call void @llvm.lifetime.start.p0(i64 4, ptr %5) #5
  %12 = load ptr, ptr %3, align 8, !tbaa !3
  %13 = getelementptr inbounds nuw %struct.engine_st, ptr %12, i32 0, i32 10
  %14 = load ptr, ptr %13, align 8, !tbaa !8
  %15 = load ptr, ptr %3, align 8, !tbaa !3
  %16 = call i32 %14(ptr noundef %15, ptr noundef null, ptr noundef %4, i32 noundef 0)
  store i32 %16, ptr %5, align 4, !tbaa !22
  %17 = load i32, ptr %5, align 4, !tbaa !22
  %18 = icmp sgt i32 %17, 0
  br i1 %18, label %19, label %24

19:                                               ; preds = %11
  %20 = load ptr, ptr %3, align 8, !tbaa !3
  %21 = load ptr, ptr %4, align 8, !tbaa !23
  %22 = load i32, ptr %5, align 4, !tbaa !22
  %23 = call i32 @engine_table_register(ptr noundef @pkey_asn1_meth_table, ptr noundef @engine_unregister_all_pkey_asn1_meths, ptr noundef %20, ptr noundef %21, i32 noundef %22, i32 noundef 0)
  store i32 %23, ptr %2, align 4
  store i32 1, ptr %6, align 4
  br label %25

24:                                               ; preds = %11
  store i32 0, ptr %6, align 4
  br label %25

25:                                               ; preds = %24, %19
  call void @llvm.lifetime.end.p0(i64 4, ptr %5) #5
  call void @llvm.lifetime.end.p0(i64 8, ptr %4) #5
  %26 = load i32, ptr %6, align 4
  switch i32 %26, label %31 [
    i32 0, label %27
    i32 1, label %29
  ]

27:                                               ; preds = %25
  br label %28

28:                                               ; preds = %27, %1
  store i32 1, ptr %2, align 4
  br label %29

29:                                               ; preds = %28, %25
  %30 = load i32, ptr %2, align 4
  ret i32 %30

31:                                               ; preds = %25
  unreachable
}